; Function Attrs: nounwind uwtable
define i32 @BIO_socket_ioctl(i32 noundef %0, i64 noundef %1, ptr noundef %2) local_unnamed_addr #0 {
  %4 = tail call i32 (i32, i64, ...) @ioctl(i32 noundef %0, i64 noundef %1, ptr noundef %2) #9
  %5 = icmp slt i32 %4, 0
  br i1 %5, label %6, label %9

6:                                                ; preds = %3
  tail call void @ERR_new() #9
  tail call void @ERR_set_debug(ptr noundef nonnull @.str, i32 noundef 246, ptr noundef nonnull @__func__.BIO_socket_ioctl) #9
  %7 = tail call ptr @__errno_location() #10
  %8 = load i32, ptr %7, align 4, !tbaa !11
  tail call void (i32, i32, ptr, ...) @ERR_set_error(i32 noundef 2, i32 noundef %8, ptr noundef nonnull @.str.2) #9
  br label %9

9:                                                ; preds = %6, %3
  ret i32 %4
}